target datalayout = "e-m:e-p270:32:32-p271:32:32-p272:64:64-i64:64-i128:128-f80:128-n8:16:32:64-S128"
target triple = "x86_64-pc-linux-gnu"

; Function Attrs: nounwind uwtable
define internal i32 @load_aux(ptr noundef %0, i32 noundef %1) #0 {
  %3 = alloca i32, align 4
  %4 = alloca ptr, align 8
  %5 = alloca i32, align 4
  store ptr %0, ptr %4, align 8, !tbaa !4
  store i32 %1, ptr %5, align 4, !tbaa !12
  %6 = load i32, ptr %5, align 4, !tbaa !12
  %7 = icmp eq i32 %6, 0
  br i1 %7, label %8, label %9

8:                                                ; preds = %2
  store i32 1, ptr %3, align 4
  br label %12

9:                                                ; preds = %2
  %10 = load ptr, ptr %4, align 8, !tbaa !4
  call void @lua_pushnil(ptr noundef %10)
  %11 = load ptr, ptr %4, align 8, !tbaa !4
  call void @lua_insert(ptr noundef %11, i32 noundef -2)
  store i32 2, ptr %3, align 4
  br label %12

12:                                               ; preds = %9, %8
  %13 = load i32, ptr %3, align 4
  ret i32 %13
}

; Function Attrs: nounwind uwtable
define internal i32 @luaB_loadstring(ptr noundef %0) #0 {
  %2 = alloca ptr, align 8
  %3 = alloca i64, align 8
  %4 = alloca ptr, align 8
  %5 = alloca ptr, align 8
  store ptr %0, ptr %2, align 8, !tbaa !4
  call void @llvm.lifetime.start.p0(i64 8, ptr %3) #5
  call void @llvm.lifetime.start.p0(i64 8, ptr %4) #5
  %6 = load ptr, ptr %2, align 8, !tbaa !4
  %7 = call ptr @luaL_checklstring(ptr noundef %6, i32 noundef 1, ptr noundef %3)
  store ptr %7, ptr %4, align 8, !tbaa !9
  call void @llvm.lifetime.start.p0(i64 8, ptr %5) #5
  %8 = load ptr, ptr %2, align 8, !tbaa !4
  %9 = load ptr, ptr %4, align 8, !tbaa !9
  %10 = call ptr @luaL_optlstring(ptr noundef %8, i32 noundef 2, ptr noundef %9, ptr noundef null)
  store ptr %10, ptr %5, align 8, !tbaa !9
  %11 = load ptr, ptr %2, align 8, !tbaa !4
  %12 = load ptr, ptr %2, align 8, !tbaa !4
  %13 = load ptr, ptr %4, align 8, !tbaa !9
  %14 = load i64, ptr %3, align 8, !tbaa !14
  %15 = load ptr, ptr %5, align 8, !tbaa !9
  %16 = call i32 @luaL_loadbuffer(ptr noundef %12, ptr noundef %13, i64 noundef %14, ptr noundef %15)
  %17 = call i32 @load_aux(ptr noundef %11, i32 noundef %16)
  call void @llvm.lifetime.end.p0(i64 8, ptr %5) #5
  call void @llvm.lifetime.end.p0(i64 8, ptr %4) #5
  call void @llvm.lifetime.end.p0(i64 8, ptr %3) #5
  ret i32 %17
}