; Function Attrs: nounwind uwtable
define internal range(i32 1, 3) i32 @luaB_loadstring(ptr noundef %0) #0 {
  %2 = alloca i64, align 8
  call void @llvm.lifetime.start.p0(i64 8, ptr nonnull %2) #8
  %3 = call ptr @luaL_checklstring(ptr noundef %0, i32 noundef 1, ptr noundef nonnull %2) #8
  %4 = call ptr @luaL_optlstring(ptr noundef %0, i32 noundef 2, ptr noundef %3, ptr noundef null) #8
  %5 = load i64, ptr %2, align 8, !tbaa !8
  %6 = call i32 @luaL_loadbuffer(ptr noundef %0, ptr noundef %3, i64 noundef %5, ptr noundef %4) #8
  %7 = icmp eq i32 %6, 0
  br i1 %7, label %load_aux.exit, label %8

8:                                                ; preds = %1
  call void @lua_pushnil(ptr noundef %0) #8
  call void @lua_insert(ptr noundef %0, i32 noundef -2) #8
  br label %load_aux.exit

load_aux.exit:                                    ; preds = %1, %8
  %.0.i = phi i32 [ 2, %8 ], [ 1, %1 ]
  call void @llvm.lifetime.end.p0(i64 8, ptr nonnull %2) #8
  ret i32 %.0.i
}